target datalayout = "e-m:e-p270:32:32-p271:32:32-p272:64:64-i64:64-i128:128-f80:128-n8:16:32:64-S128"
target triple = "x86_64-pc-linux-gnu"

%"class.Imath_3_2::Vec2" = type { i32, i32 }
%class.EnvmapImage = type { i32, %"class.Imath_3_2::Box", %"class.Imf_3_4::Array2D" }
%"class.Imath_3_2::Box" = type { %"class.Imath_3_2::Vec2", %"class.Imath_3_2::Vec2" }
%"class.Imf_3_4::Array2D" = type { i64, i64, ptr }
%"struct.Imf_3_4::Rgba" = type { %"class.Imath_3_2::half", %"class.Imath_3_2::half", %"class.Imath_3_2::half", %"class.Imath_3_2::half" }
%"class.Imath_3_2::half" = type { i16 }
%union.imath_half_uif = type { i32 }

; Function Attrs: noinline noreturn nounwind uwtable
define linkonce_odr hidden void @__clang_call_terminate(ptr noundef %0) #11 comdat {
  %2 = call ptr @__cxa_begin_catch(ptr %0) #3
  call void @_ZSt9terminatev() #17
  unreachable
}

; Function Attrs: inlinehint mustprogress nounwind uwtable
define internal noundef zeroext i16 @_ZL19imath_float_to_halff(float noundef %0) #6 {
  %2 = alloca i16, align 2
  %3 = alloca float, align 4
  %4 = alloca %union.imath_half_uif, align 4
  %5 = alloca i16, align 2
  %6 = alloca i32, align 4
  %7 = alloca i32, align 4
  %8 = alloca i32, align 4
  %9 = alloca i32, align 4
  %10 = alloca i32, align 4
  %11 = alloca i32, align 4
  store float %0, ptr %3, align 4, !tbaa !46
  call void @llvm.lifetime.start.p0(i64 4, ptr %4) #3
  call void @llvm.lifetime.start.p0(i64 2, ptr %5) #3
  call void @llvm.lifetime.start.p0(i64 4, ptr %6) #3
  call void @llvm.lifetime.start.p0(i64 4, ptr %7) #3
  call void @llvm.lifetime.start.p0(i64 4, ptr %8) #3
  call void @llvm.lifetime.start.p0(i64 4, ptr %9) #3
  call void @llvm.lifetime.start.p0(i64 4, ptr %10) #3
  %12 = load float, ptr %3, align 4, !tbaa !46
  store float %12, ptr %4, align 4, !tbaa !70
  %13 = load i32, ptr %4, align 4, !tbaa !70
  %14 = and i32 %13, 2147483647
  store i32 %14, ptr %8, align 4, !tbaa !20
  %15 = load i32, ptr %4, align 4, !tbaa !70
  %16 = lshr i32 %15, 16
  %17 = and i32 %16, 32768
  %18 = trunc i32 %17 to i16
  store i16 %18, ptr %5, align 2, !tbaa !49
  %19 = load i32, ptr %8, align 4, !tbaa !20
  %20 = icmp uge i32 %19, 947912704
  br i1 %20, label %21, label %80

21:                                               ; preds = %1
  %22 = load i32, ptr %8, align 4, !tbaa !20
  %23 = icmp uge i32 %22, 2139095040
  %24 = zext i1 %23 to i64
  %25 = call i64 @llvm.expect.i64(i64 %24, i64 0)
  %26 = icmp ne i64 %25, 0
  br i1 %26, label %27, label %52

27:                                               ; preds = %21
  %28 = load i16, ptr %5, align 2, !tbaa !49
  %29 = zext i16 %28 to i32
  %30 = or i32 %29, 31744
  %31 = trunc i32 %30 to i16
  store i16 %31, ptr %5, align 2, !tbaa !49
  %32 = load i32, ptr %8, align 4, !tbaa !20
  %33 = icmp eq i32 %32, 2139095040
  br i1 %33, label %34, label %36

34:                                               ; preds = %27
  %35 = load i16, ptr %5, align 2, !tbaa !49
  store i16 %35, ptr %2, align 2
  store i32 1, ptr %11, align 4
  br label %119

36:                                               ; preds = %27
  %37 = load i32, ptr %8, align 4, !tbaa !20
  %38 = and i32 %37, 8388607
  %39 = lshr i32 %38, 13
  store i32 %39, ptr %7, align 4, !tbaa !20
  %40 = load i16, ptr %5, align 2, !tbaa !49
  %41 = zext i16 %40 to i32
  %42 = load i32, ptr %7, align 4, !tbaa !20
  %43 = trunc i32 %42 to i16
  %44 = zext i16 %43 to i32
  %45 = or i32 %41, %44
  %46 = load i32, ptr %7, align 4, !tbaa !20
  %47 = icmp eq i32 %46, 0
  %48 = zext i1 %47 to i16
  %49 = zext i16 %48 to i32
  %50 = or i32 %45, %49
  %51 = trunc i32 %50 to i16
  store i16 %51, ptr %2, align 2
  store i32 1, ptr %11, align 4
  br label %119

52:                                               ; preds = %21
  %53 = load i32, ptr %8, align 4, !tbaa !20
  %54 = icmp ugt i32 %53, 1199566847
  %55 = zext i1 %54 to i64
  %56 = call i64 @llvm.expect.i64(i64 %55, i64 0)
  %57 = icmp ne i64 %56, 0
  br i1 %57, label %58, label %63

58:                                               ; preds = %52
  %59 = load i16, ptr %5, align 2, !tbaa !49
  %60 = zext i16 %59 to i32
  %61 = or i32 %60, 31744
  %62 = trunc i32 %61 to i16
  store i16 %62, ptr %2, align 2
  store i32 1, ptr %11, align 4
  br label %119

63:                                               ; preds = %52
  %64 = load i32, ptr %8, align 4, !tbaa !20
  %65 = sub i32 %64, 939524096
  store i32 %65, ptr %8, align 4, !tbaa !20
  %66 = load i32, ptr %8, align 4, !tbaa !20
  %67 = add i32 %66, 4095
  %68 = load i32, ptr %8, align 4, !tbaa !20
  %69 = lshr i32 %68, 13
  %70 = and i32 %69, 1
  %71 = add i32 %67, %70
  %72 = lshr i32 %71, 13
  store i32 %72, ptr %8, align 4, !tbaa !20
  %73 = load i16, ptr %5, align 2, !tbaa !49
  %74 = zext i16 %73 to i32
  %75 = load i32, ptr %8, align 4, !tbaa !20
  %76 = trunc i32 %75 to i16
  %77 = zext i16 %76 to i32
  %78 = or i32 %74, %77
  %79 = trunc i32 %78 to i16
  store i16 %79, ptr %2, align 2
  store i32 1, ptr %11, align 4
  br label %119

80:                                               ; preds = %1
  %81 = load i32, ptr %8, align 4, !tbaa !20
  %82 = icmp ult i32 %81, 855638017
  br i1 %82, label %83, label %85

83:                                               ; preds = %80
  %84 = load i16, ptr %5, align 2, !tbaa !49
  store i16 %84, ptr %2, align 2
  store i32 1, ptr %11, align 4
  br label %119

85:                                               ; preds = %80
  %86 = load i32, ptr %8, align 4, !tbaa !20
  %87 = lshr i32 %86, 23
  store i32 %87, ptr %6, align 4, !tbaa !20
  %88 = load i32, ptr %6, align 4, !tbaa !20
  %89 = sub i32 126, %88
  store i32 %89, ptr %10, align 4, !tbaa !20
  %90 = load i32, ptr %8, align 4, !tbaa !20
  %91 = and i32 %90, 8388607
  %92 = or i32 8388608, %91
  store i32 %92, ptr %7, align 4, !tbaa !20
  %93 = load i32, ptr %7, align 4, !tbaa !20
  %94 = load i32, ptr %10, align 4, !tbaa !20
  %95 = sub i32 32, %94
  %96 = shl i32 %93, %95
  store i32 %96, ptr %9, align 4, !tbaa !20
  %97 = load i32, ptr %7, align 4, !tbaa !20
  %98 = load i32, ptr %10, align 4, !tbaa !20
  %99 = lshr i32 %97, %98
  %100 = load i16, ptr %5, align 2, !tbaa !49
  %101 = zext i16 %100 to i32
  %102 = or i32 %101, %99
  %103 = trunc i32 %102 to i16
  store i16 %103, ptr %5, align 2, !tbaa !49
  %104 = load i32, ptr %9, align 4, !tbaa !20
  %105 = icmp ugt i32 %104, -2147483648
  br i1 %105, label %114, label %106

106:                                              ; preds = %85
  %107 = load i32, ptr %9, align 4, !tbaa !20
  %108 = icmp eq i32 %107, -2147483648
  br i1 %108, label %109, label %117

109:                                              ; preds = %106
  %110 = load i16, ptr %5, align 2, !tbaa !49
  %111 = zext i16 %110 to i32
  %112 = and i32 %111, 1
  %113 = icmp ne i32 %112, 0
  br i1 %113, label %114, label %117

114:                                              ; preds = %109, %85
  %115 = load i16, ptr %5, align 2, !tbaa !49
  %116 = add i16 %115, 1
  store i16 %116, ptr %5, align 2, !tbaa !49
  br label %117

117:                                              ; preds = %114, %109, %106
  %118 = load i16, ptr %5, align 2, !tbaa !49
  store i16 %118, ptr %2, align 2
  store i32 1, ptr %11, align 4
  br label %119

119:                                              ; preds = %117, %83, %63, %58, %36, %34
  call void @llvm.lifetime.end.p0(i64 4, ptr %10) #3
  call void @llvm.lifetime.end.p0(i64 4, ptr %9) #3
  call void @llvm.lifetime.end.p0(i64 4, ptr %8) #3
  call void @llvm.lifetime.end.p0(i64 4, ptr %7) #3
  call void @llvm.lifetime.end.p0(i64 4, ptr %6) #3
  call void @llvm.lifetime.end.p0(i64 2, ptr %5) #3
  call void @llvm.lifetime.end.p0(i64 4, ptr %4) #3
  %120 = load i16, ptr %2, align 2
  ret i16 %120
}

; Function Attrs: inlinehint mustprogress nounwind uwtable
define linkonce_odr dso_local void @_ZN9Imath_3_24halfC2Ef(ptr noundef nonnull align 2 dereferenceable(2) %0, float noundef %1) unnamed_addr #6 comdat align 2 personality ptr @__gxx_personality_v0 {
  %3 = alloca ptr, align 8
  %4 = alloca float, align 4
  store ptr %0, ptr %3, align 8, !tbaa !44
  store float %1, ptr %4, align 4, !tbaa !46
  %5 = load ptr, ptr %3, align 8
  %6 = getelementptr inbounds nuw %"class.Imath_3_2::half", ptr %5, i32 0, i32 0
  %7 = load float, ptr %4, align 4, !tbaa !46
  %8 = invoke noundef zeroext i16 @_ZL19imath_float_to_halff(float noundef %7)
          to label %9 unwind label %10

9:                                                ; preds = %2
  store i16 %8, ptr %6, align 2, !tbaa !68
  ret void

10:                                               ; preds = %2
  %11 = landingpad { ptr, i32 }
          catch ptr null
  %12 = extractvalue { ptr, i32 } %11, 0
  call void @__clang_call_terminate(ptr %12) #17
  unreachable
}

; Function Attrs: inlinehint mustprogress nounwind uwtable
define linkonce_odr dso_local noundef nonnull align 2 dereferenceable(2) ptr @_ZN9Imath_3_24halfaSEf(ptr noundef nonnull align 2 dereferenceable(2) %0, float noundef %1) #6 comdat align 2 {
  %3 = alloca ptr, align 8
  %4 = alloca float, align 4
  %5 = alloca %"class.Imath_3_2::half", align 2
  store ptr %0, ptr %3, align 8, !tbaa !44
  store float %1, ptr %4, align 4, !tbaa !46
  %6 = load ptr, ptr %3, align 8
  call void @llvm.lifetime.start.p0(i64 2, ptr %5) #3
  %7 = load float, ptr %4, align 4, !tbaa !46
  call void @_ZN9Imath_3_24halfC2Ef(ptr noundef nonnull align 2 dereferenceable(2) %5, float noundef %7) #3
  call void @llvm.memcpy.p0.p0.i64(ptr align 2 %6, ptr align 2 %5, i64 2, i1 false), !tbaa.struct !48
  call void @llvm.lifetime.end.p0(i64 2, ptr %5) #3
  ret ptr %6
}

; Function Attrs: inlinehint mustprogress nounwind uwtable
define linkonce_odr dso_local noundef ptr @_ZN7Imf_3_47Array2DINS_4RgbaEEixEl(ptr noundef nonnull align 8 dereferenceable(24) %0, i64 noundef %1) #6 comdat align 2 {
  %3 = alloca ptr, align 8
  %4 = alloca i64, align 8
  store ptr %0, ptr %3, align 8, !tbaa !25
  store i64 %1, ptr %4, align 8, !tbaa !27
  %5 = load ptr, ptr %3, align 8
  %6 = getelementptr inbounds nuw %"class.Imf_3_4::Array2D", ptr %5, i32 0, i32 2
  %7 = load ptr, ptr %6, align 8, !tbaa !30
  %8 = load i64, ptr %4, align 8, !tbaa !27
  %9 = getelementptr inbounds nuw %"class.Imf_3_4::Array2D", ptr %5, i32 0, i32 1
  %10 = load i64, ptr %9, align 8, !tbaa !29
  %11 = mul nsw i64 %8, %10
  %12 = getelementptr inbounds %"struct.Imf_3_4::Rgba", ptr %7, i64 %11
  ret ptr %12
}

; Function Attrs: mustprogress uwtable
define dso_local void @_ZN11EnvmapImage5clearEv(ptr noundef nonnull align 8 dereferenceable(48) %0) #4 align 2 {
  %2 = alloca ptr, align 8
  %3 = alloca i32, align 4
  %4 = alloca i32, align 4
  %5 = alloca i32, align 4
  %6 = alloca i32, align 4
  %7 = alloca i32, align 4
  %8 = alloca ptr, align 8
  store ptr %0, ptr %2, align 8, !tbaa !4
  %9 = load ptr, ptr %2, align 8
  call void @llvm.lifetime.start.p0(i64 4, ptr %3) #3
  %10 = getelementptr inbounds nuw %class.EnvmapImage, ptr %9, i32 0, i32 1
  %11 = getelementptr inbounds nuw %"class.Imath_3_2::Box", ptr %10, i32 0, i32 1
  %12 = getelementptr inbounds nuw %"class.Imath_3_2::Vec2", ptr %11, i32 0, i32 0
  %13 = load i32, ptr %12, align 4, !tbaa !31
  %14 = getelementptr inbounds nuw %class.EnvmapImage, ptr %9, i32 0, i32 1
  %15 = getelementptr inbounds nuw %"class.Imath_3_2::Box", ptr %14, i32 0, i32 0
  %16 = getelementptr inbounds nuw %"class.Imath_3_2::Vec2", ptr %15, i32 0, i32 0
  %17 = load i32, ptr %16, align 4, !tbaa !32
  %18 = sub nsw i32 %13, %17
  %19 = add nsw i32 %18, 1
  store i32 %19, ptr %3, align 4, !tbaa !20
  call void @llvm.lifetime.start.p0(i64 4, ptr %4) #3
  %20 = getelementptr inbounds nuw %class.EnvmapImage, ptr %9, i32 0, i32 1
  %21 = getelementptr inbounds nuw %"class.Imath_3_2::Box", ptr %20, i32 0, i32 1
  %22 = getelementptr inbounds nuw %"class.Imath_3_2::Vec2", ptr %21, i32 0, i32 1
  %23 = load i32, ptr %22, align 4, !tbaa !33
  %24 = getelementptr inbounds nuw %class.EnvmapImage, ptr %9, i32 0, i32 1
  %25 = getelementptr inbounds nuw %"class.Imath_3_2::Box", ptr %24, i32 0, i32 0
  %26 = getelementptr inbounds nuw %"class.Imath_3_2::Vec2", ptr %25, i32 0, i32 1
  %27 = load i32, ptr %26, align 4, !tbaa !34
  %28 = sub nsw i32 %23, %27
  %29 = add nsw i32 %28, 1
  store i32 %29, ptr %4, align 4, !tbaa !20
  call void @llvm.lifetime.start.p0(i64 4, ptr %5) #3
  store i32 0, ptr %5, align 4, !tbaa !20
  br label %30

30:                                               ; preds = %65, %1
  %31 = load i32, ptr %5, align 4, !tbaa !20
  %32 = load i32, ptr %4, align 4, !tbaa !20
  %33 = icmp slt i32 %31, %32
  br i1 %33, label %35, label %34

34:                                               ; preds = %30
  store i32 2, ptr %6, align 4
  call void @llvm.lifetime.end.p0(i64 4, ptr %5) #3
  br label %68

35:                                               ; preds = %30
  call void @llvm.lifetime.start.p0(i64 4, ptr %7) #3
  store i32 0, ptr %7, align 4, !tbaa !20
  br label %36

36:                                               ; preds = %61, %35
  %37 = load i32, ptr %7, align 4, !tbaa !20
  %38 = load i32, ptr %3, align 4, !tbaa !20
  %39 = icmp slt i32 %37, %38
  br i1 %39, label %41, label %40

40:                                               ; preds = %36
  store i32 5, ptr %6, align 4
  call void @llvm.lifetime.end.p0(i64 4, ptr %7) #3
  br label %64

41:                                               ; preds = %36
  call void @llvm.lifetime.start.p0(i64 8, ptr %8) #3
  %42 = getelementptr inbounds nuw %class.EnvmapImage, ptr %9, i32 0, i32 2
  %43 = load i32, ptr %5, align 4, !tbaa !20
  %44 = sext i32 %43 to i64
  %45 = call noundef ptr @_ZN7Imf_3_47Array2DINS_4RgbaEEixEl(ptr noundef nonnull align 8 dereferenceable(24) %42, i64 noundef %44)
  %46 = load i32, ptr %7, align 4, !tbaa !20
  %47 = sext i32 %46 to i64
  %48 = getelementptr inbounds %"struct.Imf_3_4::Rgba", ptr %45, i64 %47
  store ptr %48, ptr %8, align 8, !tbaa !35
  %49 = load ptr, ptr %8, align 8, !tbaa !35
  %50 = getelementptr inbounds nuw %"struct.Imf_3_4::Rgba", ptr %49, i32 0, i32 0
  %51 = call noundef nonnull align 2 dereferenceable(2) ptr @_ZN9Imath_3_24halfaSEf(ptr noundef nonnull align 2 dereferenceable(2) %50, float noundef 0.000000e+00) #3
  %52 = load ptr, ptr %8, align 8, !tbaa !35
  %53 = getelementptr inbounds nuw %"struct.Imf_3_4::Rgba", ptr %52, i32 0, i32 1
  %54 = call noundef nonnull align 2 dereferenceable(2) ptr @_ZN9Imath_3_24halfaSEf(ptr noundef nonnull align 2 dereferenceable(2) %53, float noundef 0.000000e+00) #3
  %55 = load ptr, ptr %8, align 8, !tbaa !35
  %56 = getelementptr inbounds nuw %"struct.Imf_3_4::Rgba", ptr %55, i32 0, i32 2
  %57 = call noundef nonnull align 2 dereferenceable(2) ptr @_ZN9Imath_3_24halfaSEf(ptr noundef nonnull align 2 dereferenceable(2) %56, float noundef 0.000000e+00) #3
  %58 = load ptr, ptr %8, align 8, !tbaa !35
  %59 = getelementptr inbounds nuw %"struct.Imf_3_4::Rgba", ptr %58, i32 0, i32 3
  %60 = call noundef nonnull align 2 dereferenceable(2) ptr @_ZN9Imath_3_24halfaSEf(ptr noundef nonnull align 2 dereferenceable(2) %59, float noundef 0.000000e+00) #3
  call void @llvm.lifetime.end.p0(i64 8, ptr %8) #3
  br label %61

61:                                               ; preds = %41
  %62 = load i32, ptr %7, align 4, !tbaa !20
  %63 = add nsw i32 %62, 1
  store i32 %63, ptr %7, align 4, !tbaa !20
  br label %36, !llvm.loop !36

64:                                               ; preds = %40
  br label %65

65:                                               ; preds = %64
  %66 = load i32, ptr %5, align 4, !tbaa !20
  %67 = add nsw i32 %66, 1
  store i32 %67, ptr %5, align 4, !tbaa !20
  br label %30, !llvm.loop !38

68:                                               ; preds = %34
  call void @llvm.lifetime.end.p0(i64 4, ptr %4) #3
  call void @llvm.lifetime.end.p0(i64 4, ptr %3) #3
  ret void
}