; Function Attrs: mustprogress nofree norecurse nosync nounwind memory(write, argmem: readwrite, inaccessiblemem: none) uwtable
define dso_local void @_ZN11EnvmapImage5clearEv(ptr noundef nonnull readonly align 8 captures(none) dereferenceable(48) %0) local_unnamed_addr #5 align 2 personality ptr @__gxx_personality_v0 {
  %2 = getelementptr inbounds nuw i8, ptr %0, i64 4
  %3 = getelementptr inbounds nuw i8, ptr %0, i64 12
  %4 = load i32, ptr %3, align 4, !tbaa !13
  %5 = load i32, ptr %2, align 4, !tbaa !19
  %6 = getelementptr inbounds nuw i8, ptr %0, i64 16
  %7 = load i32, ptr %6, align 8, !tbaa !20
  %8 = getelementptr inbounds nuw i8, ptr %0, i64 8
  %9 = load i32, ptr %8, align 8, !tbaa !21
  %.not16 = icmp slt i32 %7, %9
  br i1 %.not16, label %._crit_edge18, label %.preheader.lr.ph

.preheader.lr.ph:                                 ; preds = %1
  %.not1314 = icmp slt i32 %4, %5
  %10 = getelementptr inbounds nuw i8, ptr %0, i64 40
  %11 = load ptr, ptr %10, align 8
  br i1 %.not1314, label %._crit_edge18, label %.preheader.preheader

.preheader.preheader:                             ; preds = %.preheader.lr.ph
  %12 = getelementptr inbounds nuw i8, ptr %0, i64 32
  %13 = load i64, ptr %12, align 8
  %14 = shl i64 %13, 3
  %15 = add i32 %4, 1
  %16 = sub i32 %15, %5
  %17 = zext i32 %16 to i64
  %18 = shl nuw nsw i64 %17, 3
  %19 = add i32 %7, 1
  %20 = sub i32 %19, %9
  %wide.trip.count = zext i32 %20 to i64
  br label %.preheader

.preheader:                                       ; preds = %.preheader.preheader, %.preheader
  %indvar = phi i64 [ 0, %.preheader.preheader ], [ %indvar.next, %.preheader ]
  %21 = mul i64 %14, %indvar
  %scevgep = getelementptr i8, ptr %11, i64 %21
  tail call void @llvm.memset.p0.i64(ptr align 2 %scevgep, i8 0, i64 %18, i1 false), !tbaa !22
  %indvar.next = add nuw nsw i64 %indvar, 1
  %exitcond.not = icmp eq i64 %indvar.next, %wide.trip.count
  br i1 %exitcond.not, label %._crit_edge18, label %.preheader, !llvm.loop !24

._crit_edge18:                                    ; preds = %.preheader, %.preheader.lr.ph, %1
  ret void
}